target datalayout = "e-m:e-p270:32:32-p271:32:32-p272:64:64-i64:64-i128:128-f80:128-n8:16:32:64-S128"
target triple = "x86_64-pc-linux-gnu"

; Function Attrs: nounwind uwtable
define i32 @hwloc_cpukinds_register(ptr noundef %0, ptr noundef %1, i32 noundef %2, ptr noundef %3, i64 noundef %4) #0 {
  %6 = alloca i32, align 4
  %7 = alloca ptr, align 8
  %8 = alloca ptr, align 8
  %9 = alloca i32, align 4
  %10 = alloca ptr, align 8
  %11 = alloca i64, align 8
  %12 = alloca ptr, align 8
  %13 = alloca i32, align 4
  %14 = alloca i32, align 4
  store ptr %0, ptr %7, align 8, !tbaa !3
  store ptr %1, ptr %8, align 8, !tbaa !64
  store i32 %2, ptr %9, align 4, !tbaa !35
  store ptr %3, ptr %10, align 8, !tbaa !65
  store i64 %4, ptr %11, align 8, !tbaa !44
  call void @llvm.lifetime.start.p0(i64 8, ptr %12) #14
  call void @llvm.lifetime.start.p0(i64 4, ptr %13) #14
  %15 = load i64, ptr %11, align 8, !tbaa !44
  %16 = icmp ne i64 %15, 0
  br i1 %16, label %17, label %19

17:                                               ; preds = %5
  %18 = call ptr @__errno_location() #18
  store i32 22, ptr %18, align 4, !tbaa !35
  store i32 -1, ptr %6, align 4
  store i32 1, ptr %14, align 4
  br label %51

19:                                               ; preds = %5
  %20 = load ptr, ptr %8, align 8, !tbaa !64
  %21 = icmp ne ptr %20, null
  br i1 %21, label %22, label %26

22:                                               ; preds = %19
  %23 = load ptr, ptr %8, align 8, !tbaa !64
  %24 = call i32 @hwloc_bitmap_iszero(ptr noundef %23) #16
  %25 = icmp ne i32 %24, 0
  br i1 %25, label %26, label %28

26:                                               ; preds = %22, %19
  %27 = call ptr @__errno_location() #18
  store i32 22, ptr %27, align 4, !tbaa !35
  store i32 -1, ptr %6, align 4
  store i32 1, ptr %14, align 4
  br label %51

28:                                               ; preds = %22
  %29 = load ptr, ptr %8, align 8, !tbaa !64
  %30 = call noalias ptr @hwloc_bitmap_dup(ptr noundef %29)
  store ptr %30, ptr %12, align 8, !tbaa !64
  %31 = load ptr, ptr %12, align 8, !tbaa !64
  %32 = icmp ne ptr %31, null
  br i1 %32, label %34, label %33

33:                                               ; preds = %28
  store i32 -1, ptr %6, align 4
  store i32 1, ptr %14, align 4
  br label %51

34:                                               ; preds = %28
  %35 = load i32, ptr %9, align 4, !tbaa !35
  %36 = icmp slt i32 %35, 0
  br i1 %36, label %37, label %38

37:                                               ; preds = %34
  store i32 -1, ptr %9, align 4, !tbaa !35
  br label %38

38:                                               ; preds = %37, %34
  %39 = load ptr, ptr %7, align 8, !tbaa !3
  %40 = load ptr, ptr %12, align 8, !tbaa !64
  %41 = load i32, ptr %9, align 4, !tbaa !35
  %42 = load ptr, ptr %10, align 8, !tbaa !65
  %43 = call i32 @hwloc_internal_cpukinds_register(ptr noundef %39, ptr noundef %40, i32 noundef %41, ptr noundef %42, i64 noundef 1)
  store i32 %43, ptr %13, align 4, !tbaa !35
  %44 = load i32, ptr %13, align 4, !tbaa !35
  %45 = icmp slt i32 %44, 0
  br i1 %45, label %46, label %48

46:                                               ; preds = %38
  %47 = load i32, ptr %13, align 4, !tbaa !35
  store i32 %47, ptr %6, align 4
  store i32 1, ptr %14, align 4
  br label %51

48:                                               ; preds = %38
  %49 = load ptr, ptr %7, align 8, !tbaa !3
  %50 = call i32 @hwloc_internal_cpukinds_rank(ptr noundef %49)
  store i32 0, ptr %6, align 4
  store i32 1, ptr %14, align 4
  br label %51

51:                                               ; preds = %48, %46, %33, %26, %17
  call void @llvm.lifetime.end.p0(i64 4, ptr %13) #14
  call void @llvm.lifetime.end.p0(i64 8, ptr %12) #14
  %52 = load i32, ptr %6, align 4
  ret i32 %52
}