; Function Attrs: nounwind uwtable
define range(i32 -1, 1) i32 @hwloc_cpukinds_register(ptr noundef captures(none) %0, ptr noundef %1, i32 noundef %2, ptr noundef captures(address_is_null) %3, i64 noundef %4) local_unnamed_addr #1 {
  %.not = icmp eq i64 %4, 0
  br i1 %.not, label %8, label %6

6:                                                ; preds = %5
  %7 = tail call ptr @__errno_location() #27
  store i32 22, ptr %7, align 4, !tbaa !74
  br label %20

8:                                                ; preds = %5
  %.not16 = icmp eq ptr %1, null
  br i1 %.not16, label %11, label %9

9:                                                ; preds = %8
  %10 = tail call i32 @hwloc_bitmap_iszero(ptr noundef nonnull %1) #24
  %.not17 = icmp eq i32 %10, 0
  br i1 %.not17, label %13, label %11

11:                                               ; preds = %9, %8
  %12 = tail call ptr @__errno_location() #27
  store i32 22, ptr %12, align 4, !tbaa !74
  br label %20

13:                                               ; preds = %9
  %14 = tail call noalias ptr @hwloc_bitmap_dup(ptr noundef nonnull %1) #22
  %.not18 = icmp eq ptr %14, null
  br i1 %.not18, label %20, label %15

15:                                               ; preds = %13
  %spec.store.select = tail call i32 @llvm.smax.i32(i32 %2, i32 -1)
  %16 = tail call i32 @hwloc_internal_cpukinds_register(ptr noundef %0, ptr noundef nonnull %14, i32 noundef %spec.store.select, ptr noundef %3, i64 noundef 1)
  %17 = icmp slt i32 %16, 0
  br i1 %17, label %20, label %18

18:                                               ; preds = %15
  %19 = tail call i32 @hwloc_internal_cpukinds_rank(ptr noundef %0)
  br label %20

20:                                               ; preds = %15, %13, %18, %11, %6
  %.0 = phi i32 [ -1, %6 ], [ -1, %11 ], [ 0, %18 ], [ -1, %13 ], [ -1, %15 ]
  ret i32 %.0
}